target datalayout = "e-m:e-p270:32:32-p271:32:32-p272:64:64-i64:64-i128:128-f80:128-n8:16:32:64-S128"
target triple = "x86_64-pc-linux-gnu"

%struct.lv_point_t = type { i32, i32 }
%struct.lv_area_t = type { i32, i32, i32, i32 }
%struct.lv_event_list_t = type { %struct._lv_array_t, i8 }
%struct._lv_array_t = type { ptr, i32, i32, i32, i8 }
%struct._lv_obj_t = type { ptr, ptr, ptr, ptr, ptr, %struct.lv_area_t, i32, i16, i16 }
%union.lv_style_value_t = type { ptr }
%struct._lv_obj_spec_attr_t = type { ptr, ptr, %struct.lv_event_list_t, %struct.lv_point_t, i32, i32, i16, i16 }

; Function Attrs: inlinehint nounwind uwtable
define internal i32 @lv_obj_get_style_pad_right(ptr noundef %0, i32 noundef %1) #3 {
  %3 = alloca ptr, align 8
  %4 = alloca i32, align 4
  %5 = alloca %union.lv_style_value_t, align 8
  store ptr %0, ptr %3, align 8, !tbaa !3
  store i32 %1, ptr %4, align 4, !tbaa !21
  call void @llvm.lifetime.start.p0(i64 8, ptr %5) #6
  %6 = load ptr, ptr %3, align 8, !tbaa !3
  %7 = load i32, ptr %4, align 4, !tbaa !21
  %8 = call ptr @lv_obj_get_style_prop(ptr noundef %6, i32 noundef %7, i8 noundef zeroext 19)
  %9 = getelementptr inbounds nuw %union.lv_style_value_t, ptr %5, i32 0, i32 0
  store ptr %8, ptr %9, align 8
  %10 = load i32, ptr %5, align 8, !tbaa !46
  call void @llvm.lifetime.end.p0(i64 8, ptr %5) #6
  ret i32 %10
}

; Function Attrs: inlinehint nounwind uwtable
define internal i32 @lv_obj_get_style_pad_left(ptr noundef %0, i32 noundef %1) #3 {
  %3 = alloca ptr, align 8
  %4 = alloca i32, align 4
  %5 = alloca %union.lv_style_value_t, align 8
  store ptr %0, ptr %3, align 8, !tbaa !3
  store i32 %1, ptr %4, align 4, !tbaa !21
  call void @llvm.lifetime.start.p0(i64 8, ptr %5) #6
  %6 = load ptr, ptr %3, align 8, !tbaa !3
  %7 = load i32, ptr %4, align 4, !tbaa !21
  %8 = call ptr @lv_obj_get_style_prop(ptr noundef %6, i32 noundef %7, i8 noundef zeroext 18)
  %9 = getelementptr inbounds nuw %union.lv_style_value_t, ptr %5, i32 0, i32 0
  store ptr %8, ptr %9, align 8
  %10 = load i32, ptr %5, align 8, !tbaa !46
  call void @llvm.lifetime.end.p0(i64 8, ptr %5) #6
  ret i32 %10
}

; Function Attrs: nounwind uwtable
define internal i32 @find_snap_point_x(ptr noundef %0, i32 noundef %1, i32 noundef %2, i32 noundef %3) #0 {
  %5 = alloca i32, align 4
  %6 = alloca ptr, align 8
  %7 = alloca i32, align 4
  %8 = alloca i32, align 4
  %9 = alloca i32, align 4
  %10 = alloca i32, align 4
  %11 = alloca i32, align 4
  %12 = alloca i32, align 4
  %13 = alloca i32, align 4
  %14 = alloca i32, align 4
  %15 = alloca i32, align 4
  %16 = alloca i32, align 4
  %17 = alloca ptr, align 8
  %18 = alloca i32, align 4
  %19 = alloca i32, align 4
  %20 = alloca i32, align 4
  store ptr %0, ptr %6, align 8, !tbaa !3
  store i32 %1, ptr %7, align 4, !tbaa !21
  store i32 %2, ptr %8, align 4, !tbaa !21
  store i32 %3, ptr %9, align 4, !tbaa !21
  call void @llvm.lifetime.start.p0(i64 4, ptr %10) #6
  %21 = load ptr, ptr %6, align 8, !tbaa !3
  %22 = call i32 @lv_obj_get_scroll_snap_x(ptr noundef %21)
  store i32 %22, ptr %10, align 4, !tbaa !21
  %23 = load i32, ptr %10, align 4, !tbaa !21
  %24 = icmp eq i32 %23, 0
  br i1 %24, label %25, label %26

25:                                               ; preds = %4
  store i32 536870911, ptr %5, align 4
  store i32 1, ptr %11, align 4
  br label %160

26:                                               ; preds = %4
  call void @llvm.lifetime.start.p0(i64 4, ptr %12) #6
  store i32 536870911, ptr %12, align 4, !tbaa !21
  call void @llvm.lifetime.start.p0(i64 4, ptr %13) #6
  %27 = load ptr, ptr %6, align 8, !tbaa !3
  %28 = call i32 @lv_obj_get_style_pad_left(ptr noundef %27, i32 noundef 0)
  store i32 %28, ptr %13, align 4, !tbaa !21
  call void @llvm.lifetime.start.p0(i64 4, ptr %14) #6
  %29 = load ptr, ptr %6, align 8, !tbaa !3
  %30 = call i32 @lv_obj_get_style_pad_right(ptr noundef %29, i32 noundef 0)
  store i32 %30, ptr %14, align 4, !tbaa !21
  call void @llvm.lifetime.start.p0(i64 4, ptr %15) #6
  call void @llvm.lifetime.start.p0(i64 4, ptr %16) #6
  %31 = load ptr, ptr %6, align 8, !tbaa !3
  %32 = call i32 @lv_obj_get_child_count(ptr noundef %31)
  store i32 %32, ptr %16, align 4, !tbaa !21
  store i32 0, ptr %15, align 4, !tbaa !21
  br label %33

33:                                               ; preds = %148, %26
  %34 = load i32, ptr %15, align 4, !tbaa !21
  %35 = load i32, ptr %16, align 4, !tbaa !21
  %36 = icmp ult i32 %34, %35
  br i1 %36, label %37, label %151

37:                                               ; preds = %33
  call void @llvm.lifetime.start.p0(i64 8, ptr %17) #6
  %38 = load ptr, ptr %6, align 8, !tbaa !3
  %39 = getelementptr inbounds nuw %struct._lv_obj_t, ptr %38, i32 0, i32 2
  %40 = load ptr, ptr %39, align 8, !tbaa !53
  %41 = getelementptr inbounds nuw %struct._lv_obj_spec_attr_t, ptr %40, i32 0, i32 0
  %42 = load ptr, ptr %41, align 8, !tbaa !54
  %43 = load i32, ptr %15, align 4, !tbaa !21
  %44 = zext i32 %43 to i64
  %45 = getelementptr inbounds nuw ptr, ptr %42, i64 %44
  %46 = load ptr, ptr %45, align 8, !tbaa !3
  store ptr %46, ptr %17, align 8, !tbaa !3
  %47 = load ptr, ptr %17, align 8, !tbaa !3
  %48 = call zeroext i1 @lv_obj_has_flag_any(ptr noundef %47, i32 noundef 262145)
  br i1 %48, label %49, label %50

49:                                               ; preds = %37
  store i32 4, ptr %11, align 4
  br label %145

50:                                               ; preds = %37
  %51 = load ptr, ptr %17, align 8, !tbaa !3
  %52 = call zeroext i1 @lv_obj_has_flag(ptr noundef %51, i32 noundef 4096)
  br i1 %52, label %53, label %144

53:                                               ; preds = %50
  call void @llvm.lifetime.start.p0(i64 4, ptr %18) #6
  store i32 0, ptr %18, align 4, !tbaa !21
  call void @llvm.lifetime.start.p0(i64 4, ptr %19) #6
  store i32 0, ptr %19, align 4, !tbaa !21
  %54 = load i32, ptr %10, align 4, !tbaa !21
  switch i32 %54, label %102 [
    i32 1, label %55
    i32 2, label %66
    i32 3, label %77
  ]

55:                                               ; preds = %53
  %56 = load ptr, ptr %17, align 8, !tbaa !3
  %57 = getelementptr inbounds nuw %struct._lv_obj_t, ptr %56, i32 0, i32 5
  %58 = getelementptr inbounds nuw %struct.lv_area_t, ptr %57, i32 0, i32 0
  %59 = load i32, ptr %58, align 8, !tbaa !42
  store i32 %59, ptr %18, align 4, !tbaa !21
  %60 = load ptr, ptr %6, align 8, !tbaa !3
  %61 = getelementptr inbounds nuw %struct._lv_obj_t, ptr %60, i32 0, i32 5
  %62 = getelementptr inbounds nuw %struct.lv_area_t, ptr %61, i32 0, i32 0
  %63 = load i32, ptr %62, align 8, !tbaa !42
  %64 = load i32, ptr %13, align 4, !tbaa !21
  %65 = add nsw i32 %63, %64
  store i32 %65, ptr %19, align 4, !tbaa !21
  br label %103

66:                                               ; preds = %53
  %67 = load ptr, ptr %17, align 8, !tbaa !3
  %68 = getelementptr inbounds nuw %struct._lv_obj_t, ptr %67, i32 0, i32 5
  %69 = getelementptr inbounds nuw %struct.lv_area_t, ptr %68, i32 0, i32 2
  %70 = load i32, ptr %69, align 8, !tbaa !45
  store i32 %70, ptr %18, align 4, !tbaa !21
  %71 = load ptr, ptr %6, align 8, !tbaa !3
  %72 = getelementptr inbounds nuw %struct._lv_obj_t, ptr %71, i32 0, i32 5
  %73 = getelementptr inbounds nuw %struct.lv_area_t, ptr %72, i32 0, i32 2
  %74 = load i32, ptr %73, align 8, !tbaa !45
  %75 = load i32, ptr %14, align 4, !tbaa !21
  %76 = sub nsw i32 %74, %75
  store i32 %76, ptr %19, align 4, !tbaa !21
  br label %103

77:                                               ; preds = %53
  %78 = load ptr, ptr %17, align 8, !tbaa !3
  %79 = getelementptr inbounds nuw %struct._lv_obj_t, ptr %78, i32 0, i32 5
  %80 = getelementptr inbounds nuw %struct.lv_area_t, ptr %79, i32 0, i32 0
  %81 = load i32, ptr %80, align 8, !tbaa !42
  %82 = load ptr, ptr %17, align 8, !tbaa !3
  %83 = getelementptr inbounds nuw %struct._lv_obj_t, ptr %82, i32 0, i32 5
  %84 = call i32 @lv_area_get_width(ptr noundef %83)
  %85 = sdiv i32 %84, 2
  %86 = add nsw i32 %81, %85
  store i32 %86, ptr %18, align 4, !tbaa !21
  %87 = load ptr, ptr %6, align 8, !tbaa !3
  %88 = getelementptr inbounds nuw %struct._lv_obj_t, ptr %87, i32 0, i32 5
  %89 = getelementptr inbounds nuw %struct.lv_area_t, ptr %88, i32 0, i32 0
  %90 = load i32, ptr %89, align 8, !tbaa !42
  %91 = load i32, ptr %13, align 4, !tbaa !21
  %92 = add nsw i32 %90, %91
  %93 = load ptr, ptr %6, align 8, !tbaa !3
  %94 = getelementptr inbounds nuw %struct._lv_obj_t, ptr %93, i32 0, i32 5
  %95 = call i32 @lv_area_get_width(ptr noundef %94)
  %96 = load i32, ptr %13, align 4, !tbaa !21
  %97 = sub nsw i32 %95, %96
  %98 = load i32, ptr %14, align 4, !tbaa !21
  %99 = sub nsw i32 %97, %98
  %100 = sdiv i32 %99, 2
  %101 = add nsw i32 %92, %100
  store i32 %101, ptr %19, align 4, !tbaa !21
  br label %103

102:                                              ; preds = %53
  store i32 4, ptr %11, align 4
  br label %141

103:                                              ; preds = %77, %66, %55
  %104 = load i32, ptr %9, align 4, !tbaa !21
  %105 = load i32, ptr %18, align 4, !tbaa !21
  %106 = add nsw i32 %105, %104
  store i32 %106, ptr %18, align 4, !tbaa !21
  %107 = load i32, ptr %18, align 4, !tbaa !21
  %108 = load i32, ptr %7, align 4, !tbaa !21
  %109 = icmp sge i32 %107, %108
  br i1 %109, label %110, label %140

110:                                              ; preds = %103
  %111 = load i32, ptr %18, align 4, !tbaa !21
  %112 = load i32, ptr %8, align 4, !tbaa !21
  %113 = icmp sle i32 %111, %112
  br i1 %113, label %114, label %140

114:                                              ; preds = %110
  call void @llvm.lifetime.start.p0(i64 4, ptr %20) #6
  %115 = load i32, ptr %18, align 4, !tbaa !21
  %116 = load i32, ptr %19, align 4, !tbaa !21
  %117 = sub nsw i32 %115, %116
  store i32 %117, ptr %20, align 4, !tbaa !21
  %118 = load i32, ptr %20, align 4, !tbaa !21
  %119 = icmp sgt i32 %118, 0
  br i1 %119, label %120, label %122

120:                                              ; preds = %114
  %121 = load i32, ptr %20, align 4, !tbaa !21
  br label %125

122:                                              ; preds = %114
  %123 = load i32, ptr %20, align 4, !tbaa !21
  %124 = sub nsw i32 0, %123
  br label %125

125:                                              ; preds = %122, %120
  %126 = phi i32 [ %121, %120 ], [ %124, %122 ]
  %127 = load i32, ptr %12, align 4, !tbaa !21
  %128 = icmp sgt i32 %127, 0
  br i1 %128, label %129, label %131

129:                                              ; preds = %125
  %130 = load i32, ptr %12, align 4, !tbaa !21
  br label %134

131:                                              ; preds = %125
  %132 = load i32, ptr %12, align 4, !tbaa !21
  %133 = sub nsw i32 0, %132
  br label %134

134:                                              ; preds = %131, %129
  %135 = phi i32 [ %130, %129 ], [ %133, %131 ]
  %136 = icmp slt i32 %126, %135
  br i1 %136, label %137, label %139

137:                                              ; preds = %134
  %138 = load i32, ptr %20, align 4, !tbaa !21
  store i32 %138, ptr %12, align 4, !tbaa !21
  br label %139

139:                                              ; preds = %137, %134
  call void @llvm.lifetime.end.p0(i64 4, ptr %20) #6
  br label %140

140:                                              ; preds = %139, %110, %103
  store i32 0, ptr %11, align 4
  br label %141

141:                                              ; preds = %140, %102
  call void @llvm.lifetime.end.p0(i64 4, ptr %19) #6
  call void @llvm.lifetime.end.p0(i64 4, ptr %18) #6
  %142 = load i32, ptr %11, align 4
  switch i32 %142, label %145 [
    i32 0, label %143
  ]

143:                                              ; preds = %141
  br label %144

144:                                              ; preds = %143, %50
  store i32 0, ptr %11, align 4
  br label %145

145:                                              ; preds = %144, %141, %49
  call void @llvm.lifetime.end.p0(i64 8, ptr %17) #6
  %146 = load i32, ptr %11, align 4
  switch i32 %146, label %162 [
    i32 0, label %147
    i32 4, label %148
  ]

147:                                              ; preds = %145
  br label %148

148:                                              ; preds = %147, %145
  %149 = load i32, ptr %15, align 4, !tbaa !21
  %150 = add i32 %149, 1
  store i32 %150, ptr %15, align 4, !tbaa !21
  br label %33, !llvm.loop !57

151:                                              ; preds = %33
  %152 = load i32, ptr %12, align 4, !tbaa !21
  %153 = icmp eq i32 %152, 536870911
  br i1 %153, label %154, label %155

154:                                              ; preds = %151
  br label %158

155:                                              ; preds = %151
  %156 = load i32, ptr %12, align 4, !tbaa !21
  %157 = sub nsw i32 0, %156
  br label %158

158:                                              ; preds = %155, %154
  %159 = phi i32 [ 536870911, %154 ], [ %157, %155 ]
  store i32 %159, ptr %5, align 4
  store i32 1, ptr %11, align 4
  call void @llvm.lifetime.end.p0(i64 4, ptr %16) #6
  call void @llvm.lifetime.end.p0(i64 4, ptr %15) #6
  call void @llvm.lifetime.end.p0(i64 4, ptr %14) #6
  call void @llvm.lifetime.end.p0(i64 4, ptr %13) #6
  call void @llvm.lifetime.end.p0(i64 4, ptr %12) #6
  br label %160

160:                                              ; preds = %158, %25
  call void @llvm.lifetime.end.p0(i64 4, ptr %10) #6
  %161 = load i32, ptr %5, align 4
  ret i32 %161

162:                                              ; preds = %145
  unreachable
}