; Function Attrs: nounwind uwtable
define internal fastcc range(i32 -2147483647, -2147483648) i32 @find_snap_point_x(ptr noundef %0, i32 noundef %1, i32 noundef %2, i32 noundef %3) unnamed_addr #0 {
  %5 = tail call i32 @lv_obj_get_scroll_snap_x(ptr noundef %0) #5
  %6 = icmp eq i32 %5, 0
  br i1 %6, label %59, label %7

7:                                                ; preds = %4
  %8 = tail call ptr @lv_obj_get_style_prop(ptr noundef %0, i32 noundef 0, i8 noundef zeroext 18) #5
  %9 = ptrtoint ptr %8 to i64
  %.sroa.0.0.extract.trunc.i = trunc i64 %9 to i32
  %10 = tail call ptr @lv_obj_get_style_prop(ptr noundef %0, i32 noundef 0, i8 noundef zeroext 19) #5
  %11 = ptrtoint ptr %10 to i64
  %.sroa.0.0.extract.trunc.i52 = trunc i64 %11 to i32
  %12 = tail call i32 @lv_obj_get_child_count(ptr noundef %0) #5
  %.not55 = icmp eq i32 %12, 0
  br i1 %.not55, label %._crit_edge.thread, label %.lr.ph

.lr.ph:                                           ; preds = %7
  %13 = getelementptr inbounds nuw i8, ptr %0, i64 16
  %14 = getelementptr inbounds nuw i8, ptr %0, i64 40
  %15 = add i32 %.sroa.0.0.extract.trunc.i52, %.sroa.0.0.extract.trunc.i
  %16 = getelementptr inbounds nuw i8, ptr %0, i64 48
  %wide.trip.count = zext i32 %12 to i64
  br label %17

17:                                               ; preds = %.lr.ph, %56
  %indvars.iv = phi i64 [ 0, %.lr.ph ], [ %indvars.iv.next, %56 ]
  %.04754 = phi i32 [ 536870911, %.lr.ph ], [ %.1, %56 ]
  %18 = load ptr, ptr %13, align 8, !tbaa !42
  %19 = load ptr, ptr %18, align 8, !tbaa !43
  %20 = getelementptr inbounds nuw ptr, ptr %19, i64 %indvars.iv
  %21 = load ptr, ptr %20, align 8, !tbaa !45
  %22 = tail call zeroext i1 @lv_obj_has_flag_any(ptr noundef %21, i32 noundef 262145) #5
  br i1 %22, label %56, label %23

23:                                               ; preds = %17
  %24 = tail call zeroext i1 @lv_obj_has_flag(ptr noundef %21, i32 noundef 4096) #5
  br i1 %24, label %25, label %56

25:                                               ; preds = %23
  switch i32 %5, label %56 [
    i32 1, label %26
    i32 2, label %31
    i32 3, label %36
  ]

26:                                               ; preds = %25
  %27 = getelementptr inbounds nuw i8, ptr %21, i64 40
  %28 = load i32, ptr %27, align 8, !tbaa !23
  %29 = load i32, ptr %14, align 8, !tbaa !23
  %30 = add nsw i32 %29, %.sroa.0.0.extract.trunc.i
  br label %48

31:                                               ; preds = %25
  %32 = getelementptr inbounds nuw i8, ptr %21, i64 48
  %33 = load i32, ptr %32, align 8, !tbaa !26
  %34 = load i32, ptr %16, align 8, !tbaa !26
  %35 = sub nsw i32 %34, %.sroa.0.0.extract.trunc.i52
  br label %48

36:                                               ; preds = %25
  %37 = getelementptr inbounds nuw i8, ptr %21, i64 40
  %38 = load i32, ptr %37, align 8, !tbaa !23
  %39 = tail call i32 @lv_area_get_width(ptr noundef nonnull %37) #5
  %40 = sdiv i32 %39, 2
  %41 = add nsw i32 %40, %38
  %42 = load i32, ptr %14, align 8, !tbaa !23
  %43 = add nsw i32 %42, %.sroa.0.0.extract.trunc.i
  %44 = tail call i32 @lv_area_get_width(ptr noundef nonnull %14) #5
  %45 = sub i32 %44, %15
  %46 = sdiv i32 %45, 2
  %47 = add nsw i32 %43, %46
  br label %48

48:                                               ; preds = %36, %31, %26
  %.045 = phi i32 [ %41, %36 ], [ %33, %31 ], [ %28, %26 ]
  %.044 = phi i32 [ %47, %36 ], [ %35, %31 ], [ %30, %26 ]
  %49 = add nsw i32 %.045, %3
  %.not = icmp slt i32 %49, %1
  %.not51 = icmp sgt i32 %49, %2
  %or.cond = or i1 %.not, %.not51
  br i1 %or.cond, label %56, label %50

50:                                               ; preds = %48
  %51 = sub nsw i32 %49, %.044
  %52 = tail call i32 @llvm.abs.i32(i32 %51, i1 true)
  %53 = tail call i32 @llvm.abs.i32(i32 %.04754, i1 true)
  %54 = icmp samesign ult i32 %52, %53
  %spec.select = select i1 %54, i32 %51, i32 %.04754
  %55 = freeze i32 %spec.select
  br label %56

56:                                               ; preds = %25, %50, %48, %23, %17
  %.1 = phi i32 [ %.04754, %17 ], [ %.04754, %23 ], [ %.04754, %25 ], [ %55, %50 ], [ %.04754, %48 ]
  %indvars.iv.next = add nuw nsw i64 %indvars.iv, 1
  %exitcond.not = icmp eq i64 %indvars.iv.next, %wide.trip.count
  br i1 %exitcond.not, label %._crit_edge, label %17, !llvm.loop !47

._crit_edge:                                      ; preds = %56
  %57 = icmp eq i32 %.1, 536870911
  %58 = sub nsw i32 0, %.1
  br i1 %57, label %._crit_edge.thread, label %59

._crit_edge.thread:                               ; preds = %7, %._crit_edge
  br label %59

59:                                               ; preds = %._crit_edge.thread, %._crit_edge, %4
  %.0 = phi i32 [ 536870911, %4 ], [ 536870911, %._crit_edge.thread ], [ %58, %._crit_edge ]
  ret i32 %.0
}